(dp0
S'_AgentService:AgentInfo'
p1
(dp2
S'com.plexapp.agents.fanarttv'
p3
(lp4
(dp5
S'media_types'
p6
(lp7
S'Movie'
p8
asS'primary_provider'
p9
I00
sS'fallback_agent'
p10
NsS'contributes_to'
p11
(lp12
S'com.plexapp.agents.imdb'
p13
aS'com.plexapp.agents.themoviedb'
p14
asS'has_attribution'
p15
I01
sS'languages'
p16
(lp17
S'xn'
p18
asS'persist_stored_files'
p19
I01
sS'version'
p20
I0
sS'accepts_from'
p21
NsS'prefs'
p22
I01
sS'name'
p23
S'Fanart.tv'
p24
sa(dp25
S'media_types'
p26
(lp27
S'TV_Show'
p28
asS'primary_provider'
p29
I00
sS'fallback_agent'
p30
NsS'contributes_to'
p31
(lp32
S'com.plexapp.agents.thetvdb'
p33
aS'com.plexapp.agents.themoviedb'
p34
asg15
I01
sS'languages'
p35
(lp36
S'xn'
p37
asS'persist_stored_files'
p38
I01
sS'version'
p39
I0
sS'accepts_from'
p40
NsS'prefs'
p41
I01
sS'name'
p42
S'Fanart.tv'
p43
sa(dp44
S'media_types'
p45
(lp46
S'Artist'
p47
asS'primary_provider'
p48
I00
sS'fallback_agent'
p49
NsS'contributes_to'
p50
(lp51
S'com.plexapp.agents.lastfm'
p52
asg15
I01
sS'languages'
p53
(lp54
S'xn'
p55
asS'persist_stored_files'
p56
I01
sS'version'
p57
I0
sS'accepts_from'
p58
NsS'prefs'
p59
I01
sS'name'
p60
S'Fanart.tv'
p61
sa(dp62
S'media_types'
p63
(lp64
S'Album'
p65
asS'primary_provider'
p66
I00
sS'fallback_agent'
p67
NsS'contributes_to'
p68
(lp69
S'com.plexapp.agents.lastfm'
p70
asg15
I01
sS'languages'
p71
(lp72
S'xn'
p73
asS'persist_stored_files'
p74
I01
sS'version'
p75
I0
sS'accepts_from'
p76
NsS'prefs'
p77
I01
sS'name'
p78
S'Fanart.tv'
p79
sasS'com.plexapp.agents.none'
p80
(lp81
(dp82
S'media_types'
p83
(lp84
S'Movie'
p85
asS'primary_provider'
p86
I01
sS'fallback_agent'
p87
NsS'contributes_to'
p88
Nsg15
I00
sS'languages'
p89
(lp90
S'xn'
p91
asS'persist_stored_files'
p92
I01
sS'version'
p93
I0
sS'accepts_from'
p94
NsS'prefs'
p95
I00
sS'name'
p96
S'Personal Media'
p97
sa(dp98
S'media_types'
p99
(lp100
S'TV_Show'
p101
asS'primary_provider'
p102
I01
sS'fallback_agent'
p103
NsS'contributes_to'
p104
Nsg15
I00
sS'languages'
p105
(lp106
S'xn'
p107
asS'persist_stored_files'
p108
I01
sS'version'
p109
I0
sS'accepts_from'
p110
NsS'prefs'
p111
I00
sS'name'
p112
S'Personal Media Shows'
p113
sa(dp114
S'media_types'
p115
(lp116
S'Artist'
p117
asS'primary_provider'
p118
I01
sS'fallback_agent'
p119
NsS'contributes_to'
p120
Nsg15
I00
sS'languages'
p121
(lp122
S'xn'
p123
asS'persist_stored_files'
p124
I01
sS'version'
p125
I0
sS'accepts_from'
p126
NsS'prefs'
p127
I00
sS'name'
p128
S'Personal Media Artists'
p129
sa(dp130
S'media_types'
p131
(lp132
S'Album'
p133
asS'primary_provider'
p134
I01
sS'fallback_agent'
p135
NsS'contributes_to'
p136
Nsg15
I00
sS'languages'
p137
(lp138
S'xn'
p139
asS'persist_stored_files'
p140
I01
sS'version'
p141
I0
sS'accepts_from'
p142
NsS'prefs'
p143
I00
sS'name'
p144
S'Personal Media Albums'
p145
sa(dp146
S'media_types'
p147
(lp148
S'Photo'
p149
asS'primary_provider'
p150
I01
sS'fallback_agent'
p151
NsS'contributes_to'
p152
Nsg15
I00
sS'languages'
p153
(lp154
S'en'
p155
aS'ar'
p156
aS'bg'
p157
aS'ca'
p158
aS'cs'
p159
aS'cy'
p160
aS'da'
p161
aS'de'
p162
aS'el'
p163
aS'es'
p164
aS'et'
p165
aS'fa'
p166
aS'fi'
p167
aS'fr'
p168
aS'he'
p169
aS'hi'
p170
aS'hr'
p171
aS'ht'
p172
aS'hu'
p173
aS'id'
p174
aS'it'
p175
aS'ja'
p176
aS'ko'
p177
aS'lt'
p178
aS'lv'
p179
aS'ms'
p180
aS'mt'
p181
aS'nl'
p182
aS'no'
p183
aS'pl'
p184
aS'pt'
p185
aS'ro'
p186
aS'ru'
p187
aS'sk'
p188
aS'sv'
p189
aS'sl'
p190
aS'sr'
p191
aS'th'
p192
aS'tr'
p193
aS'uk'
p194
aS'ur'
p195
aS'vi'
p196
aS'zh'
p197
aS'xn'
p198
asS'persist_stored_files'
p199
I01
sS'version'
p200
I0
sS'accepts_from'
p201
NsS'prefs'
p202
I00
sS'name'
p203
S'Photos'
p204
sasS'tv.plex.agents.music'
p205
(lp206
(dp207
S'media_types'
p208
(lp209
S'Artist'
p210
asS'primary_provider'
p211
I01
sS'fallback_agent'
p212
NsS'contributes_to'
p213
(lp214
S'com.plexapp.agents.localmedia'
p215
asg15
I01
sS'languages'
p216
(lp217
S'en'
p218
aS'ar'
p219
aS'bg'
p220
aS'zh'
p221
aS'hr'
p222
aS'cs'
p223
aS'da'
p224
aS'nl'
p225
aS'fi'
p226
aS'fr'
p227
aS'de'
p228
aS'el'
p229
aS'hu'
p230
aS'id'
p231
aS'it'
p232
aS'ja'
p233
aS'ko'
p234
aS'nn'
p235
aS'pl'
p236
aS'pt'
p237
aS'ro'
p238
aS'ru'
p239
aS'sr'
p240
aS'sk'
p241
aS'es'
p242
aS'sv'
p243
aS'th'
p244
aS'tr'
p245
aS'vi'
p246
aS'xx'
p247
asS'persist_stored_files'
p248
I01
sS'version'
p249
I0
sS'accepts_from'
p250
NsS'prefs'
p251
I01
sS'name'
p252
S'Plex Music'
p253
sa(dp254
S'media_types'
p255
(lp256
S'Album'
p257
asS'primary_provider'
p258
I01
sS'fallback_agent'
p259
NsS'contributes_to'
p260
(lp261
S'com.plexapp.agents.localmedia'
p262
asg15
I01
sS'languages'
p263
g217
sS'persist_stored_files'
p264
I01
sS'version'
p265
I0
sS'accepts_from'
p266
NsS'prefs'
p267
I01
sS'name'
p268
S'Plex Music'
p269
sasS'com.plexapp.agents.opensubtitles'
p270
(lp271
(dp272
S'media_types'
p273
(lp274
S'Movie'
p275
asS'primary_provider'
p276
I00
sS'fallback_agent'
p277
NsS'contributes_to'
p278
(lp279
S'com.plexapp.agents.imdb'
p280
asg15
I00
sS'languages'
p281
(lp282
S'xn'
p283
asS'persist_stored_files'
p284
I01
sS'version'
p285
I0
sS'accepts_from'
p286
NsS'prefs'
p287
I01
sS'name'
p288
S'OpenSubtitles.org'
p289
sa(dp290
S'media_types'
p291
(lp292
S'TV_Show'
p293
asS'primary_provider'
p294
I00
sS'fallback_agent'
p295
NsS'contributes_to'
p296
(lp297
S'com.plexapp.agents.thetvdb'
p298
asg15
I00
sS'languages'
p299
(lp300
S'xn'
p301
asS'persist_stored_files'
p302
I01
sS'version'
p303
I0
sS'accepts_from'
p304
NsS'prefs'
p305
I01
sS'name'
p306
S'OpenSubtitles.org'
p307
sasS'com.plexapp.agents.imdb'
p308
(lp309
(dp310
S'media_types'
p311
(lp312
S'Movie'
p313
asS'primary_provider'
p314
I01
sS'fallback_agent'
p315
NsS'contributes_to'
p316
(lp317
S'com.plexapp.agents.themoviedb'
p318
asg15
I01
sS'languages'
p319
(lp320
S'en'
p321
aS'sv'
p322
aS'fr'
p323
aS'es'
p324
aS'nl'
p325
aS'de'
p326
aS'it'
p327
aS'da'
p328
aS'ar'
p329
aS'ca'
p330
aS'zh'
p331
aS'cs'
p332
aS'et'
p333
aS'fi'
p334
aS'el'
p335
aS'he'
p336
aS'hi'
p337
aS'hu'
p338
aS'id'
p339
aS'ja'
p340
aS'ko'
p341
aS'lv'
p342
aS'no'
p343
aS'fa'
p344
aS'pl'
p345
aS'pt'
p346
aS'ro'
p347
aS'ru'
p348
aS'sk'
p349
aS'th'
p350
aS'tr'
p351
aS'uk'
p352
aS'vi'
p353
asS'persist_stored_files'
p354
I01
sS'version'
p355
I0
sS'accepts_from'
p356
(lp357
S'com.plexapp.agents.localmedia'
p358
asS'prefs'
p359
I01
sS'name'
p360
S'Plex Movie'
p361
sasS'com.plexapp.agents.lyricfind'
p362
(lp363
(dp364
S'media_types'
p365
(lp366
S'Album'
p367
asS'primary_provider'
p368
I00
sS'fallback_agent'
p369
NsS'contributes_to'
p370
(lp371
S'com.plexapp.agents.lastfm'
p372
aS'tv.plex.agents.music'
p373
aS'org.musicbrainz.agents.music'
p374
asg15
I01
sS'languages'
p375
(lp376
S'xn'
p377
asS'persist_stored_files'
p378
I01
sS'version'
p379
I0
sS'accepts_from'
p380
NsS'prefs'
p381
I00
sS'name'
p382
S'LyricFind'
p383
sasS'com.plexapp.agents.thetvdb'
p384
(lp385
(dp386
S'media_types'
p387
(lp388
S'TV_Show'
p389
asS'primary_provider'
p390
I01
sS'fallback_agent'
p391
NsS'contributes_to'
p392
Nsg15
I01
sS'languages'
p393
(lp394
S'en'
p395
aS'fr'
p396
aS'zh'
p397
aS'sv'
p398
aS'no'
p399
aS'da'
p400
aS'fi'
p401
aS'nl'
p402
aS'de'
p403
aS'it'
p404
aS'es'
p405
aS'pl'
p406
aS'hu'
p407
aS'el'
p408
aS'tr'
p409
aS'ru'
p410
aS'he'
p411
aS'ja'
p412
aS'pt'
p413
aS'cs'
p414
aS'ko'
p415
aS'sl'
p416
aS'hr'
p417
asS'persist_stored_files'
p418
I01
sS'version'
p419
I0
sS'accepts_from'
p420
NsS'prefs'
p421
I01
sS'name'
p422
S'TheTVDB'
p423
sasS'tv.plex.agents.movie'
p424
(lp425
(dp426
S'media_types'
p427
(lp428
S'Movie'
p429
asS'primary_provider'
p430
I01
sS'fallback_agent'
p431
NsS'contributes_to'
p432
Nsg15
I01
sS'languages'
p433
(lp434
sS'persist_stored_files'
p435
I01
sS'version'
p436
I0
sS'accepts_from'
p437
NsS'prefs'
p438
I01
sS'name'
p439
S'Plex Movie'
p440
sasS'tv.plex.agents.series'
p441
(lp442
(dp443
S'media_types'
p444
(lp445
S'TV_Show'
p446
asS'primary_provider'
p447
I01
sS'fallback_agent'
p448
NsS'contributes_to'
p449
Nsg15
I01
sS'languages'
p450
(lp451
sS'persist_stored_files'
p452
I01
sS'version'
p453
I0
sS'accepts_from'
p454
NsS'prefs'
p455
I01
sS'name'
p456
S'Plex TV Series'
p457
sasS'com.plexapp.agents.plexthememusic'
p458
(lp459
(dp460
S'media_types'
p461
(lp462
S'TV_Show'
p463
asS'primary_provider'
p464
I00
sS'fallback_agent'
p465
NsS'contributes_to'
p466
(lp467
S'com.plexapp.agents.thetvdb'
p468
aS'com.plexapp.agents.thetvdbdvdorder'
p469
aS'com.plexapp.agents.themoviedb'
p470
asg15
I00
sS'languages'
p471
(lp472
S'xn'
p473
asS'persist_stored_files'
p474
I01
sS'version'
p475
I0
sS'accepts_from'
p476
NsS'prefs'
p477
I00
sS'name'
p478
S'Plex Theme Music'
p479
sasS'org.musicbrainz.agents.music'
p480
(lp481
(dp482
S'media_types'
p483
(lp484
S'Artist'
p485
asS'primary_provider'
p486
I01
sS'fallback_agent'
p487
NsS'contributes_to'
p488
Nsg15
I01
sS'languages'
p489
(lp490
S'en'
p491
aS'ar'
p492
aS'bg'
p493
aS'zh'
p494
aS'hr'
p495
aS'cs'
p496
aS'da'
p497
aS'nl'
p498
aS'fi'
p499
aS'fr'
p500
aS'de'
p501
aS'el'
p502
aS'hu'
p503
aS'id'
p504
aS'it'
p505
aS'ja'
p506
aS'ko'
p507
aS'nn'
p508
aS'pl'
p509
aS'pt'
p510
aS'ro'
p511
aS'ru'
p512
aS'sr'
p513
aS'sk'
p514
aS'es'
p515
aS'sv'
p516
aS'th'
p517
aS'tr'
p518
aS'vi'
p519
aS'xx'
p520
asS'persist_stored_files'
p521
I01
sS'version'
p522
I0
sS'accepts_from'
p523
NsS'prefs'
p524
I01
sS'name'
p525
S'Musicbrainz'
p526
sa(dp527
S'media_types'
p528
(lp529
S'Album'
p530
asS'primary_provider'
p531
I01
sS'fallback_agent'
p532
NsS'contributes_to'
p533
Nsg15
I01
sS'languages'
p534
g490
sS'persist_stored_files'
p535
I01
sS'version'
p536
I0
sS'accepts_from'
p537
NsS'prefs'
p538
I01
sS'name'
p539
S'Musicbrainz'
p540
sasS'com.plexapp.agents.themoviedb'
p541
(lp542
(dp543
S'media_types'
p544
(lp545
S'Movie'
p546
asS'primary_provider'
p547
I01
sS'fallback_agent'
p548
NsS'contributes_to'
p549
Nsg15
I01
sS'languages'
p550
(lp551
S'en'
p552
aS'cs'
p553
aS'da'
p554
aS'de'
p555
aS'el'
p556
aS'es'
p557
aS'fi'
p558
aS'fr'
p559
aS'he'
p560
aS'hr'
p561
aS'hu'
p562
aS'it'
p563
aS'lv'
p564
aS'lt'
p565
aS'nl'
p566
aS'no'
p567
aS'pl'
p568
aS'pt'
p569
aS'ru'
p570
aS'sk'
p571
aS'sv'
p572
aS'th'
p573
aS'tr'
p574
aS'vi'
p575
aS'zh'
p576
aS'ko'
p577
asS'persist_stored_files'
p578
I01
sS'version'
p579
I0
sS'accepts_from'
p580
(lp581
S'com.plexapp.agents.localmedia'
p582
asS'prefs'
p583
I01
sS'name'
p584
S'The Movie Database'
p585
sa(dp586
S'media_types'
p587
(lp588
S'TV_Show'
p589
asS'primary_provider'
p590
I01
sS'fallback_agent'
p591
NsS'contributes_to'
p592
(lp593
S'com.plexapp.agents.thetvdb'
p594
asg15
I01
sS'languages'
p595
g551
sS'persist_stored_files'
p596
I01
sS'version'
p597
I0
sS'accepts_from'
p598
(lp599
S'com.plexapp.agents.localmedia'
p600
aS'com.plexapp.agents.thetvdb'
p601
asS'prefs'
p602
I01
sS'name'
p603
S'The Movie Database'
p604
sasS'com.plexapp.agents.localmedia'
p605
(lp606
(dp607
S'media_types'
p608
(lp609
S'Movie'
p610
asS'primary_provider'
p611
I00
sS'fallback_agent'
p612
NsS'contributes_to'
p613
(lp614
S'com.plexapp.agents.imdb'
p615
aS'com.plexapp.agents.none'
p616
asg15
I00
sS'languages'
p617
(lp618
S'xn'
p619
asS'persist_stored_files'
p620
I00
sS'version'
p621
I0
sS'accepts_from'
p622
NsS'prefs'
p623
I01
sS'name'
p624
S'Local Media Assets (Movies)'
p625
sa(dp626
S'media_types'
p627
(lp628
S'TV_Show'
p629
asS'primary_provider'
p630
I00
sS'fallback_agent'
p631
NsS'contributes_to'
p632
(lp633
S'com.plexapp.agents.thetvdb'
p634
aS'com.plexapp.agents.none'
p635
asg15
I00
sS'languages'
p636
(lp637
S'xn'
p638
asS'persist_stored_files'
p639
I00
sS'version'
p640
I0
sS'accepts_from'
p641
NsS'prefs'
p642
I01
sS'name'
p643
S'Local Media Assets (TV)'
p644
sa(dp645
S'media_types'
p646
(lp647
S'Artist'
p648
asS'primary_provider'
p649
I00
sS'fallback_agent'
p650
NsS'contributes_to'
p651
(lp652
S'com.plexapp.agents.discogs'
p653
aS'com.plexapp.agents.lastfm'
p654
aS'com.plexapp.agents.plexmusic'
p655
aS'com.plexapp.agents.none'
p656
aS'tv.plex.agents.music'
p657
aS'org.musicbrainz.agents.music'
p658
asg15
I00
sS'languages'
p659
(lp660
S'xn'
p661
asS'persist_stored_files'
p662
I00
sS'version'
p663
I0
sS'accepts_from'
p664
NsS'prefs'
p665
I01
sS'name'
p666
S'Local Media Assets (Artists)'
p667
sa(dp668
S'media_types'
p669
(lp670
S'Artist'
p671
asS'primary_provider'
p672
I00
sS'fallback_agent'
p673
NsS'contributes_to'
p674
(lp675
S'com.plexapp.agents.plexmusic'
p676
asg15
I00
sS'languages'
p677
g660
sS'persist_stored_files'
p678
I00
sS'version'
p679
I2
sS'accepts_from'
p680
NsS'prefs'
p681
I01
sS'name'
p682
S'Local Media Assets (Artists)'
p683
sa(dp684
S'media_types'
p685
(lp686
S'Album'
p687
asS'primary_provider'
p688
I00
sS'fallback_agent'
p689
NsS'contributes_to'
p690
(lp691
S'com.plexapp.agents.discogs'
p692
aS'com.plexapp.agents.lastfm'
p693
aS'com.plexapp.agents.plexmusic'
p694
aS'com.plexapp.agents.none'
p695
aS'tv.plex.agents.music'
p696
aS'org.musicbrainz.agents.music'
p697
asg15
I00
sS'languages'
p698
(lp699
S'xn'
p700
asS'persist_stored_files'
p701
I00
sS'version'
p702
I0
sS'accepts_from'
p703
NsS'prefs'
p704
I01
sS'name'
p705
S'Local Media Assets (Albums)'
p706
sasS'com.plexapp.agents.movieposterdb'
p707
(lp708
(dp709
S'media_types'
p710
(lp711
S'Movie'
p712
asS'primary_provider'
p713
I00
sS'fallback_agent'
p714
NsS'contributes_to'
p715
(lp716
S'com.plexapp.agents.imdb'
p717
asg15
I01
sS'languages'
p718
(lp719
S'xn'
p720
asS'persist_stored_files'
p721
I01
sS'version'
p722
I0
sS'accepts_from'
p723
NsS'prefs'
p724
I00
sS'name'
p725
S'CineMaterial'
p726
sasS'com.plexapp.agents.htbackdrops'
p727
(lp728
(dp729
S'media_types'
p730
(lp731
S'Artist'
p732
asS'primary_provider'
p733
I00
sS'fallback_agent'
p734
NsS'contributes_to'
p735
(lp736
S'com.plexapp.agents.lastfm'
p737
asg15
I01
sS'languages'
p738
(lp739
S'ab'
p740
aS'aa'
p741
aS'af'
p742
aS'ak'
p743
aS'sq'
p744
aS'am'
p745
aS'ar'
p746
aS'an'
p747
aS'hy'
p748
aS'as'
p749
aS'av'
p750
aS'ae'
p751
aS'ay'
p752
aS'az'
p753
aS'bm'
p754
aS'ba'
p755
aS'eu'
p756
aS'be'
p757
aS'bn'
p758
aS'bh'
p759
aS'bi'
p760
aS'bs'
p761
aS'pb'
p762
aS'br'
p763
aS'bg'
p764
aS'my'
p765
aS'ca'
p766
aS'ch'
p767
aS'ce'
p768
aS'ny'
p769
aS'zh'
p770
aS'cu'
p771
aS'cv'
p772
aS'kw'
p773
aS'co'
p774
aS'cr'
p775
aS'hr'
p776
aS'cs'
p777
aS'da'
p778
aS'dv'
p779
aS'nl'
p780
aS'dz'
p781
aS'en'
p782
aS'eo'
p783
aS'et'
p784
aS'ee'
p785
aS'fo'
p786
aS'fj'
p787
aS'fi'
p788
aS'fr'
p789
aS'fy'
p790
aS'ff'
p791
aS'gd'
p792
aS'gl'
p793
aS'lg'
p794
aS'ka'
p795
aS'de'
p796
aS'el'
p797
aS'gn'
p798
aS'gu'
p799
aS'ht'
p800
aS'ha'
p801
aS'he'
p802
aS'hz'
p803
aS'hi'
p804
aS'ho'
p805
aS'hu'
p806
aS'is'
p807
aS'io'
p808
aS'ig'
p809
aS'id'
p810
aS'ia'
p811
aS'ie'
p812
aS'iu'
p813
aS'ik'
p814
aS'ga'
p815
aS'it'
p816
aS'ja'
p817
aS'jv'
p818
aS'kl'
p819
aS'kn'
p820
aS'kr'
p821
aS'ks'
p822
aS'kk'
p823
aS'km'
p824
aS'ki'
p825
aS'rw'
p826
aS'ky'
p827
aS'kv'
p828
aS'kg'
p829
aS'ko'
p830
aS'kj'
p831
aS'ku'
p832
aS'lo'
p833
aS'la'
p834
aS'lv'
p835
aS'li'
p836
aS'ln'
p837
aS'lt'
p838
aS'lu'
p839
aS'lb'
p840
aS'mk'
p841
aS'mg'
p842
aS'ms'
p843
aS'ml'
p844
aS'mt'
p845
aS'gv'
p846
aS'mi'
p847
aS'mr'
p848
aS'mh'
p849
aS'mo'
p850
aS'mn'
p851
aS'na'
p852
aS'nv'
p853
aS'ng'
p854
aS'ne'
p855
aS'xn'
p856
aS'nd'
p857
aS'no'
p858
aS'nb'
p859
aS'nn'
p860
aS'oc'
p861
aS'oj'
p862
aS'or'
p863
aS'om'
p864
aS'os'
p865
aS'pi'
p866
aS'pa'
p867
aS'fa'
p868
aS'pl'
p869
aS'pt'
p870
aS'ps'
p871
aS'qu'
p872
aS'rm'
p873
aS'ro'
p874
aS'rn'
p875
aS'ru'
p876
aS'se'
p877
aS'sm'
p878
aS'sg'
p879
aS'sa'
p880
aS'sc'
p881
aS'sr'
p882
aS'sn'
p883
aS'ii'
p884
aS'sd'
p885
aS'si'
p886
aS'sk'
p887
aS'sl'
p888
aS'so'
p889
aS'st'
p890
aS'nr'
p891
aS'es'
p892
aS'su'
p893
aS'sw'
p894
aS'ss'
p895
aS'sv'
p896
aS'tl'
p897
aS'ty'
p898
aS'tg'
p899
aS'ta'
p900
aS'tt'
p901
aS'te'
p902
aS'th'
p903
aS'bo'
p904
aS'ti'
p905
aS'to'
p906
aS'ts'
p907
aS'tn'
p908
aS'tr'
p909
aS'tk'
p910
aS'tw'
p911
aS'ug'
p912
aS'uk'
p913
aS'ur'
p914
aS'uz'
p915
aS've'
p916
aS'vi'
p917
aS'vo'
p918
aS'wa'
p919
aS'cy'
p920
aS'wo'
p921
aS'xh'
p922
aS'yi'
p923
aS'yo'
p924
aS'za'
p925
aS'zu'
p926
asS'persist_stored_files'
p927
I01
sS'version'
p928
I0
sS'accepts_from'
p929
NsS'prefs'
p930
I00
sS'name'
p931
S'Home Theater Backdrops'
p932
sasS'com.plexapp.agents.lastfm'
p933
(lp934
(dp935
S'media_types'
p936
(lp937
S'Artist'
p938
asS'primary_provider'
p939
I01
sS'fallback_agent'
p940
NsS'contributes_to'
p941
Nsg15
I01
sS'languages'
p942
(lp943
S'en'
p944
aS'sv'
p945
aS'fr'
p946
aS'es'
p947
aS'de'
p948
aS'pl'
p949
aS'it'
p950
aS'pt'
p951
aS'ja'
p952
aS'tr'
p953
aS'ru'
p954
aS'zh'
p955
asS'persist_stored_files'
p956
I01
sS'version'
p957
I0
sS'accepts_from'
p958
NsS'prefs'
p959
I01
sS'name'
p960
S'Last.fm'
p961
sa(dp962
S'media_types'
p963
(lp964
S'Album'
p965
asS'primary_provider'
p966
I01
sS'fallback_agent'
p967
NsS'contributes_to'
p968
Nsg15
I01
sS'languages'
p969
(lp970
S'en'
p971
aS'sv'
p972
aS'fr'
p973
aS'es'
p974
aS'de'
p975
aS'pl'
p976
aS'it'
p977
aS'pt'
p978
aS'ja'
p979
aS'tr'
p980
aS'ru'
p981
aS'zh'
p982
asS'persist_stored_files'
p983
I01
sS'version'
p984
I0
sS'accepts_from'
p985
NsS'prefs'
p986
I01
sS'name'
p987
S'Last.fm'
p988
sass.