(dp0
S'_AgentService:AgentInfo'
p1
(dp2
S'com.plexapp.agents.fanarttv'
p3
(lp4
(dp5
S'media_types'
p6
(lp7
S'Movie'
p8
asS'accepts_from'
p9
NsS'fallback_agent'
p10
NsS'contributes_to'
p11
(lp12
S'com.plexapp.agents.imdb'
p13
aS'com.plexapp.agents.themoviedb'
p14
asS'has_attribution'
p15
I01
sS'languages'
p16
(lp17
S'xn'
p18
asS'persist_stored_files'
p19
I01
sS'version'
p20
I0
sS'primary_provider'
p21
I00
sS'prefs'
p22
I01
sS'name'
p23
S'Fanart.tv'
p24
sa(dp25
S'media_types'
p26
(lp27
S'TV_Show'
p28
asS'accepts_from'
p29
NsS'fallback_agent'
p30
NsS'contributes_to'
p31
(lp32
S'com.plexapp.agents.thetvdb'
p33
aS'com.plexapp.agents.themoviedb'
p34
asg15
I01
sS'languages'
p35
(lp36
S'xn'
p37
asS'persist_stored_files'
p38
I01
sS'version'
p39
I0
sS'primary_provider'
p40
I00
sS'prefs'
p41
I01
sS'name'
p42
S'Fanart.tv'
p43
sa(dp44
S'media_types'
p45
(lp46
S'Artist'
p47
asS'accepts_from'
p48
NsS'fallback_agent'
p49
NsS'contributes_to'
p50
(lp51
S'com.plexapp.agents.lastfm'
p52
asg15
I01
sS'languages'
p53
(lp54
S'xn'
p55
asS'persist_stored_files'
p56
I01
sS'version'
p57
I0
sS'primary_provider'
p58
I00
sS'prefs'
p59
I01
sS'name'
p60
S'Fanart.tv'
p61
sa(dp62
S'media_types'
p63
(lp64
S'Album'
p65
asS'accepts_from'
p66
NsS'fallback_agent'
p67
NsS'contributes_to'
p68
(lp69
S'com.plexapp.agents.lastfm'
p70
asg15
I01
sS'languages'
p71
(lp72
S'xn'
p73
asS'persist_stored_files'
p74
I01
sS'version'
p75
I0
sS'primary_provider'
p76
I00
sS'prefs'
p77
I01
sS'name'
p78
S'Fanart.tv'
p79
sasS'com.plexapp.agents.none'
p80
(lp81
(dp82
S'media_types'
p83
(lp84
S'Movie'
p85
asS'accepts_from'
p86
NsS'fallback_agent'
p87
NsS'contributes_to'
p88
Nsg15
I00
sS'languages'
p89
(lp90
S'xn'
p91
asS'persist_stored_files'
p92
I01
sS'version'
p93
I0
sS'primary_provider'
p94
I01
sS'prefs'
p95
I00
sS'name'
p96
S'Personal Media'
p97
sa(dp98
S'media_types'
p99
(lp100
S'TV_Show'
p101
asS'accepts_from'
p102
NsS'fallback_agent'
p103
NsS'contributes_to'
p104
Nsg15
I00
sS'languages'
p105
(lp106
S'xn'
p107
asS'persist_stored_files'
p108
I01
sS'version'
p109
I0
sS'primary_provider'
p110
I01
sS'prefs'
p111
I00
sS'name'
p112
S'Personal Media Shows'
p113
sa(dp114
S'media_types'
p115
(lp116
S'Artist'
p117
asS'accepts_from'
p118
NsS'fallback_agent'
p119
NsS'contributes_to'
p120
Nsg15
I00
sS'languages'
p121
(lp122
S'xn'
p123
asS'persist_stored_files'
p124
I01
sS'version'
p125
I0
sS'primary_provider'
p126
I01
sS'prefs'
p127
I00
sS'name'
p128
S'Personal Media Artists'
p129
sa(dp130
S'media_types'
p131
(lp132
S'Album'
p133
asS'accepts_from'
p134
NsS'fallback_agent'
p135
NsS'contributes_to'
p136
Nsg15
I00
sS'languages'
p137
(lp138
S'xn'
p139
asS'persist_stored_files'
p140
I01
sS'version'
p141
I0
sS'primary_provider'
p142
I01
sS'prefs'
p143
I00
sS'name'
p144
S'Personal Media Albums'
p145
sa(dp146
S'media_types'
p147
(lp148
S'Photo'
p149
asS'accepts_from'
p150
NsS'fallback_agent'
p151
NsS'contributes_to'
p152
Nsg15
I00
sS'languages'
p153
(lp154
S'en'
p155
aS'ar'
p156
aS'bg'
p157
aS'ca'
p158
aS'cs'
p159
aS'cy'
p160
aS'da'
p161
aS'de'
p162
aS'el'
p163
aS'es'
p164
aS'et'
p165
aS'fa'
p166
aS'fi'
p167
aS'fr'
p168
aS'he'
p169
aS'hi'
p170
aS'hr'
p171
aS'ht'
p172
aS'hu'
p173
aS'id'
p174
aS'it'
p175
aS'ja'
p176
aS'ko'
p177
aS'lt'
p178
aS'lv'
p179
aS'ms'
p180
aS'mt'
p181
aS'nl'
p182
aS'no'
p183
aS'pl'
p184
aS'pt'
p185
aS'ro'
p186
aS'ru'
p187
aS'sk'
p188
aS'sv'
p189
aS'sl'
p190
aS'sr'
p191
aS'th'
p192
aS'tr'
p193
aS'uk'
p194
aS'ur'
p195
aS'vi'
p196
aS'zh'
p197
aS'xn'
p198
asS'persist_stored_files'
p199
I01
sS'version'
p200
I0
sS'primary_provider'
p201
I01
sS'prefs'
p202
I00
sS'name'
p203
S'Photos'
p204
sasS'tv.plex.agents.music'
p205
(lp206
(dp207
S'media_types'
p208
(lp209
S'Artist'
p210
asS'accepts_from'
p211
NsS'fallback_agent'
p212
NsS'contributes_to'
p213
(lp214
S'com.plexapp.agents.localmedia'
p215
asg15
I01
sS'languages'
p216
(lp217
S'en'
p218
aS'ar'
p219
aS'bg'
p220
aS'zh'
p221
aS'hr'
p222
aS'cs'
p223
aS'da'
p224
aS'nl'
p225
aS'fi'
p226
aS'fr'
p227
aS'de'
p228
aS'el'
p229
aS'hu'
p230
aS'id'
p231
aS'it'
p232
aS'ja'
p233
aS'ko'
p234
aS'nn'
p235
aS'pl'
p236
aS'pt'
p237
aS'ro'
p238
aS'ru'
p239
aS'sr'
p240
aS'sk'
p241
aS'es'
p242
aS'sv'
p243
aS'th'
p244
aS'tr'
p245
aS'vi'
p246
aS'xx'
p247
asS'persist_stored_files'
p248
I01
sS'version'
p249
I0
sS'primary_provider'
p250
I01
sS'prefs'
p251
I01
sS'name'
p252
S'Plex Music'
p253
sa(dp254
S'media_types'
p255
(lp256
S'Album'
p257
asS'accepts_from'
p258
NsS'fallback_agent'
p259
NsS'contributes_to'
p260
(lp261
S'com.plexapp.agents.localmedia'
p262
asg15
I01
sS'languages'
p263
g217
sS'persist_stored_files'
p264
I01
sS'version'
p265
I0
sS'primary_provider'
p266
I01
sS'prefs'
p267
I01
sS'name'
p268
S'Plex Music'
p269
sasS'com.plexapp.agents.opensubtitles'
p270
(lp271
(dp272
S'media_types'
p273
(lp274
S'Movie'
p275
asS'accepts_from'
p276
NsS'fallback_agent'
p277
NsS'contributes_to'
p278
(lp279
S'com.plexapp.agents.imdb'
p280
asg15
I00
sS'languages'
p281
(lp282
S'xn'
p283
asS'persist_stored_files'
p284
I01
sS'version'
p285
I0
sS'primary_provider'
p286
I00
sS'prefs'
p287
I01
sS'name'
p288
S'OpenSubtitles.org'
p289
sa(dp290
S'media_types'
p291
(lp292
S'TV_Show'
p293
asS'accepts_from'
p294
NsS'fallback_agent'
p295
NsS'contributes_to'
p296
(lp297
S'com.plexapp.agents.thetvdb'
p298
asg15
I00
sS'languages'
p299
(lp300
S'xn'
p301
asS'persist_stored_files'
p302
I01
sS'version'
p303
I0
sS'primary_provider'
p304
I00
sS'prefs'
p305
I01
sS'name'
p306
S'OpenSubtitles.org'
p307
sasS'com.plexapp.agents.imdb'
p308
(lp309
(dp310
S'media_types'
p311
(lp312
S'Movie'
p313
asS'primary_provider'
p314
I01
sS'fallback_agent'
p315
NsS'contributes_to'
p316
(lp317
S'com.plexapp.agents.themoviedb'
p318
asS'has_attribution'
p319
I01
sS'languages'
p320
(lp321
S'en'
p322
aS'sv'
p323
aS'fr'
p324
aS'es'
p325
aS'nl'
p326
aS'de'
p327
aS'it'
p328
aS'da'
p329
aS'ar'
p330
aS'ca'
p331
aS'zh'
p332
aS'cs'
p333
aS'et'
p334
aS'fi'
p335
aS'el'
p336
aS'he'
p337
aS'hi'
p338
aS'hu'
p339
aS'id'
p340
aS'ja'
p341
aS'ko'
p342
aS'lv'
p343
aS'no'
p344
aS'fa'
p345
aS'pl'
p346
aS'pt'
p347
aS'ro'
p348
aS'ru'
p349
aS'sk'
p350
aS'th'
p351
aS'tr'
p352
aS'uk'
p353
aS'vi'
p354
asS'persist_stored_files'
p355
I01
sS'version'
p356
I0
sS'accepts_from'
p357
(lp358
S'com.plexapp.agents.localmedia'
p359
asS'prefs'
p360
I01
sS'name'
p361
S'Plex Movie'
p362
sasS'com.plexapp.agents.lyricfind'
p363
(lp364
(dp365
S'media_types'
p366
(lp367
S'Album'
p368
asS'accepts_from'
p369
NsS'fallback_agent'
p370
NsS'contributes_to'
p371
(lp372
S'com.plexapp.agents.lastfm'
p373
aS'tv.plex.agents.music'
p374
aS'org.musicbrainz.agents.music'
p375
asg15
I01
sS'languages'
p376
(lp377
S'xn'
p378
asS'persist_stored_files'
p379
I01
sS'version'
p380
I0
sS'primary_provider'
p381
I00
sS'prefs'
p382
I00
sS'name'
p383
S'LyricFind'
p384
sasS'com.plexapp.agents.thetvdb'
p385
(lp386
(dp387
S'media_types'
p388
(lp389
S'TV_Show'
p390
asS'accepts_from'
p391
NsS'fallback_agent'
p392
NsS'contributes_to'
p393
Nsg15
I01
sS'languages'
p394
(lp395
S'en'
p396
aS'fr'
p397
aS'zh'
p398
aS'sv'
p399
aS'no'
p400
aS'da'
p401
aS'fi'
p402
aS'nl'
p403
aS'de'
p404
aS'it'
p405
aS'es'
p406
aS'pl'
p407
aS'hu'
p408
aS'el'
p409
aS'tr'
p410
aS'ru'
p411
aS'he'
p412
aS'ja'
p413
aS'pt'
p414
aS'cs'
p415
aS'ko'
p416
aS'sl'
p417
aS'hr'
p418
asS'persist_stored_files'
p419
I01
sS'version'
p420
I0
sS'primary_provider'
p421
I01
sS'prefs'
p422
I01
sS'name'
p423
S'TheTVDB'
p424
sasS'tv.plex.agents.movie'
p425
(lp426
(dp427
S'media_types'
p428
(lp429
S'Movie'
p430
asS'accepts_from'
p431
NsS'fallback_agent'
p432
NsS'contributes_to'
p433
Nsg15
I01
sS'languages'
p434
(lp435
sS'persist_stored_files'
p436
I01
sS'version'
p437
I0
sS'primary_provider'
p438
I01
sS'prefs'
p439
I01
sS'name'
p440
S'Plex Movie'
p441
sasS'tv.plex.agents.series'
p442
(lp443
(dp444
S'media_types'
p445
(lp446
S'TV_Show'
p447
asS'accepts_from'
p448
NsS'fallback_agent'
p449
NsS'contributes_to'
p450
Nsg15
I01
sS'languages'
p451
(lp452
sS'persist_stored_files'
p453
I01
sS'version'
p454
I0
sS'primary_provider'
p455
I01
sS'prefs'
p456
I01
sS'name'
p457
S'Plex TV Series'
p458
sasS'com.plexapp.agents.plexthememusic'
p459
(lp460
(dp461
S'media_types'
p462
(lp463
S'TV_Show'
p464
asS'accepts_from'
p465
NsS'fallback_agent'
p466
NsS'contributes_to'
p467
(lp468
S'com.plexapp.agents.thetvdb'
p469
aS'com.plexapp.agents.thetvdbdvdorder'
p470
aS'com.plexapp.agents.themoviedb'
p471
asg15
I00
sS'languages'
p472
(lp473
S'xn'
p474
asS'persist_stored_files'
p475
I01
sS'version'
p476
I0
sS'primary_provider'
p477
I00
sS'prefs'
p478
I00
sS'name'
p479
S'Plex Theme Music'
p480
sasS'org.musicbrainz.agents.music'
p481
(lp482
(dp483
S'media_types'
p484
(lp485
S'Artist'
p486
asS'accepts_from'
p487
NsS'fallback_agent'
p488
NsS'contributes_to'
p489
Nsg15
I01
sS'languages'
p490
(lp491
S'en'
p492
aS'ar'
p493
aS'bg'
p494
aS'zh'
p495
aS'hr'
p496
aS'cs'
p497
aS'da'
p498
aS'nl'
p499
aS'fi'
p500
aS'fr'
p501
aS'de'
p502
aS'el'
p503
aS'hu'
p504
aS'id'
p505
aS'it'
p506
aS'ja'
p507
aS'ko'
p508
aS'nn'
p509
aS'pl'
p510
aS'pt'
p511
aS'ro'
p512
aS'ru'
p513
aS'sr'
p514
aS'sk'
p515
aS'es'
p516
aS'sv'
p517
aS'th'
p518
aS'tr'
p519
aS'vi'
p520
aS'xx'
p521
asS'persist_stored_files'
p522
I01
sS'version'
p523
I0
sS'primary_provider'
p524
I01
sS'prefs'
p525
I01
sS'name'
p526
S'Musicbrainz'
p527
sa(dp528
S'media_types'
p529
(lp530
S'Album'
p531
asS'accepts_from'
p532
NsS'fallback_agent'
p533
NsS'contributes_to'
p534
Nsg15
I01
sS'languages'
p535
g491
sS'persist_stored_files'
p536
I01
sS'version'
p537
I0
sS'primary_provider'
p538
I01
sS'prefs'
p539
I01
sS'name'
p540
S'Musicbrainz'
p541
sasS'com.plexapp.agents.themoviedb'
p542
(lp543
(dp544
S'media_types'
p545
(lp546
S'Movie'
p547
asS'accepts_from'
p548
(lp549
S'com.plexapp.agents.localmedia'
p550
asS'fallback_agent'
p551
NsS'contributes_to'
p552
Nsg15
I01
sS'languages'
p553
(lp554
S'en'
p555
aS'cs'
p556
aS'da'
p557
aS'de'
p558
aS'el'
p559
aS'es'
p560
aS'fi'
p561
aS'fr'
p562
aS'he'
p563
aS'hr'
p564
aS'hu'
p565
aS'it'
p566
aS'lv'
p567
aS'lt'
p568
aS'nl'
p569
aS'no'
p570
aS'pl'
p571
aS'pt'
p572
aS'ru'
p573
aS'sk'
p574
aS'sv'
p575
aS'th'
p576
aS'tr'
p577
aS'vi'
p578
aS'zh'
p579
aS'ko'
p580
asS'persist_stored_files'
p581
I01
sS'version'
p582
I0
sS'primary_provider'
p583
I01
sS'prefs'
p584
I01
sS'name'
p585
S'The Movie Database'
p586
sa(dp587
S'media_types'
p588
(lp589
S'TV_Show'
p590
asS'accepts_from'
p591
(lp592
S'com.plexapp.agents.localmedia'
p593
aS'com.plexapp.agents.thetvdb'
p594
asS'fallback_agent'
p595
NsS'contributes_to'
p596
(lp597
S'com.plexapp.agents.thetvdb'
p598
asg15
I01
sS'languages'
p599
g554
sS'persist_stored_files'
p600
I01
sS'version'
p601
I0
sS'primary_provider'
p602
I01
sS'prefs'
p603
I01
sS'name'
p604
S'The Movie Database'
p605
sasS'com.plexapp.agents.htbackdrops'
p606
(lp607
(dp608
S'media_types'
p609
(lp610
S'Artist'
p611
asS'accepts_from'
p612
NsS'fallback_agent'
p613
NsS'contributes_to'
p614
(lp615
S'com.plexapp.agents.lastfm'
p616
asg15
I01
sS'languages'
p617
(lp618
S'ab'
p619
aS'aa'
p620
aS'af'
p621
aS'ak'
p622
aS'sq'
p623
aS'am'
p624
aS'ar'
p625
aS'an'
p626
aS'hy'
p627
aS'as'
p628
aS'av'
p629
aS'ae'
p630
aS'ay'
p631
aS'az'
p632
aS'bm'
p633
aS'ba'
p634
aS'eu'
p635
aS'be'
p636
aS'bn'
p637
aS'bh'
p638
aS'bi'
p639
aS'bs'
p640
aS'pb'
p641
aS'br'
p642
aS'bg'
p643
aS'my'
p644
aS'ca'
p645
aS'ch'
p646
aS'ce'
p647
aS'ny'
p648
aS'zh'
p649
aS'cu'
p650
aS'cv'
p651
aS'kw'
p652
aS'co'
p653
aS'cr'
p654
aS'hr'
p655
aS'cs'
p656
aS'da'
p657
aS'dv'
p658
aS'nl'
p659
aS'dz'
p660
aS'en'
p661
aS'eo'
p662
aS'et'
p663
aS'ee'
p664
aS'fo'
p665
aS'fj'
p666
aS'fi'
p667
aS'fr'
p668
aS'fy'
p669
aS'ff'
p670
aS'gd'
p671
aS'gl'
p672
aS'lg'
p673
aS'ka'
p674
aS'de'
p675
aS'el'
p676
aS'gn'
p677
aS'gu'
p678
aS'ht'
p679
aS'ha'
p680
aS'he'
p681
aS'hz'
p682
aS'hi'
p683
aS'ho'
p684
aS'hu'
p685
aS'is'
p686
aS'io'
p687
aS'ig'
p688
aS'id'
p689
aS'ia'
p690
aS'ie'
p691
aS'iu'
p692
aS'ik'
p693
aS'ga'
p694
aS'it'
p695
aS'ja'
p696
aS'jv'
p697
aS'kl'
p698
aS'kn'
p699
aS'kr'
p700
aS'ks'
p701
aS'kk'
p702
aS'km'
p703
aS'ki'
p704
aS'rw'
p705
aS'ky'
p706
aS'kv'
p707
aS'kg'
p708
aS'ko'
p709
aS'kj'
p710
aS'ku'
p711
aS'lo'
p712
aS'la'
p713
aS'lv'
p714
aS'li'
p715
aS'ln'
p716
aS'lt'
p717
aS'lu'
p718
aS'lb'
p719
aS'mk'
p720
aS'mg'
p721
aS'ms'
p722
aS'ml'
p723
aS'mt'
p724
aS'gv'
p725
aS'mi'
p726
aS'mr'
p727
aS'mh'
p728
aS'mo'
p729
aS'mn'
p730
aS'na'
p731
aS'nv'
p732
aS'ng'
p733
aS'ne'
p734
aS'xn'
p735
aS'nd'
p736
aS'no'
p737
aS'nb'
p738
aS'nn'
p739
aS'oc'
p740
aS'oj'
p741
aS'or'
p742
aS'om'
p743
aS'os'
p744
aS'pi'
p745
aS'pa'
p746
aS'fa'
p747
aS'pl'
p748
aS'pt'
p749
aS'ps'
p750
aS'qu'
p751
aS'rm'
p752
aS'ro'
p753
aS'rn'
p754
aS'ru'
p755
aS'se'
p756
aS'sm'
p757
aS'sg'
p758
aS'sa'
p759
aS'sc'
p760
aS'sr'
p761
aS'sn'
p762
aS'ii'
p763
aS'sd'
p764
aS'si'
p765
aS'sk'
p766
aS'sl'
p767
aS'so'
p768
aS'st'
p769
aS'nr'
p770
aS'es'
p771
aS'su'
p772
aS'sw'
p773
aS'ss'
p774
aS'sv'
p775
aS'tl'
p776
aS'ty'
p777
aS'tg'
p778
aS'ta'
p779
aS'tt'
p780
aS'te'
p781
aS'th'
p782
aS'bo'
p783
aS'ti'
p784
aS'to'
p785
aS'ts'
p786
aS'tn'
p787
aS'tr'
p788
aS'tk'
p789
aS'tw'
p790
aS'ug'
p791
aS'uk'
p792
aS'ur'
p793
aS'uz'
p794
aS've'
p795
aS'vi'
p796
aS'vo'
p797
aS'wa'
p798
aS'cy'
p799
aS'wo'
p800
aS'xh'
p801
aS'yi'
p802
aS'yo'
p803
aS'za'
p804
aS'zu'
p805
asS'persist_stored_files'
p806
I01
sS'version'
p807
I0
sS'primary_provider'
p808
I00
sS'prefs'
p809
I00
sS'name'
p810
S'Home Theater Backdrops'
p811
sasS'com.plexapp.agents.movieposterdb'
p812
(lp813
(dp814
S'media_types'
p815
(lp816
S'Movie'
p817
asS'accepts_from'
p818
NsS'fallback_agent'
p819
NsS'contributes_to'
p820
(lp821
S'com.plexapp.agents.imdb'
p822
asg15
I01
sS'languages'
p823
(lp824
S'xn'
p825
asS'persist_stored_files'
p826
I01
sS'version'
p827
I0
sS'primary_provider'
p828
I00
sS'prefs'
p829
I00
sS'name'
p830
S'CineMaterial'
p831
sasS'com.plexapp.agents.localmedia'
p832
(lp833
(dp834
S'media_types'
p835
(lp836
S'Movie'
p837
asS'accepts_from'
p838
NsS'fallback_agent'
p839
NsS'contributes_to'
p840
(lp841
S'com.plexapp.agents.imdb'
p842
aS'com.plexapp.agents.none'
p843
asg15
I00
sS'languages'
p844
(lp845
S'xn'
p846
asS'persist_stored_files'
p847
I00
sS'version'
p848
I0
sS'primary_provider'
p849
I00
sS'prefs'
p850
I01
sS'name'
p851
S'Local Media Assets (Movies)'
p852
sa(dp853
S'media_types'
p854
(lp855
S'TV_Show'
p856
asS'accepts_from'
p857
NsS'fallback_agent'
p858
NsS'contributes_to'
p859
(lp860
S'com.plexapp.agents.thetvdb'
p861
aS'com.plexapp.agents.none'
p862
asg15
I00
sS'languages'
p863
(lp864
S'xn'
p865
asS'persist_stored_files'
p866
I00
sS'version'
p867
I0
sS'primary_provider'
p868
I00
sS'prefs'
p869
I01
sS'name'
p870
S'Local Media Assets (TV)'
p871
sa(dp872
S'media_types'
p873
(lp874
S'Artist'
p875
asS'accepts_from'
p876
NsS'fallback_agent'
p877
NsS'contributes_to'
p878
(lp879
S'com.plexapp.agents.discogs'
p880
aS'com.plexapp.agents.lastfm'
p881
aS'com.plexapp.agents.plexmusic'
p882
aS'com.plexapp.agents.none'
p883
aS'tv.plex.agents.music'
p884
aS'org.musicbrainz.agents.music'
p885
asg15
I00
sS'languages'
p886
(lp887
S'xn'
p888
asS'persist_stored_files'
p889
I00
sS'version'
p890
I0
sS'primary_provider'
p891
I00
sS'prefs'
p892
I01
sS'name'
p893
S'Local Media Assets (Artists)'
p894
sa(dp895
S'media_types'
p896
(lp897
S'Artist'
p898
asS'accepts_from'
p899
NsS'fallback_agent'
p900
NsS'contributes_to'
p901
(lp902
S'com.plexapp.agents.plexmusic'
p903
asg15
I00
sS'languages'
p904
g887
sS'persist_stored_files'
p905
I00
sS'version'
p906
I2
sS'primary_provider'
p907
I00
sS'prefs'
p908
I01
sS'name'
p909
S'Local Media Assets (Artists)'
p910
sa(dp911
S'media_types'
p912
(lp913
S'Album'
p914
asS'accepts_from'
p915
NsS'fallback_agent'
p916
NsS'contributes_to'
p917
(lp918
S'com.plexapp.agents.discogs'
p919
aS'com.plexapp.agents.lastfm'
p920
aS'com.plexapp.agents.plexmusic'
p921
aS'com.plexapp.agents.none'
p922
aS'tv.plex.agents.music'
p923
aS'org.musicbrainz.agents.music'
p924
asg15
I00
sS'languages'
p925
(lp926
S'xn'
p927
asS'persist_stored_files'
p928
I00
sS'version'
p929
I0
sS'primary_provider'
p930
I00
sS'prefs'
p931
I01
sS'name'
p932
S'Local Media Assets (Albums)'
p933
sasS'com.plexapp.agents.lastfm'
p934
(lp935
(dp936
S'media_types'
p937
(lp938
S'Artist'
p939
asS'accepts_from'
p940
NsS'fallback_agent'
p941
NsS'contributes_to'
p942
Nsg15
I01
sS'languages'
p943
(lp944
S'en'
p945
aS'sv'
p946
aS'fr'
p947
aS'es'
p948
aS'de'
p949
aS'pl'
p950
aS'it'
p951
aS'pt'
p952
aS'ja'
p953
aS'tr'
p954
aS'ru'
p955
aS'zh'
p956
asS'persist_stored_files'
p957
I01
sS'version'
p958
I0
sS'primary_provider'
p959
I01
sS'prefs'
p960
I01
sS'name'
p961
S'Last.fm'
p962
sa(dp963
S'media_types'
p964
(lp965
S'Album'
p966
asS'accepts_from'
p967
NsS'fallback_agent'
p968
NsS'contributes_to'
p969
Nsg15
I01
sS'languages'
p970
(lp971
S'en'
p972
aS'sv'
p973
aS'fr'
p974
aS'es'
p975
aS'de'
p976
aS'pl'
p977
aS'it'
p978
aS'pt'
p979
aS'ja'
p980
aS'tr'
p981
aS'ru'
p982
aS'zh'
p983
asS'persist_stored_files'
p984
I01
sS'version'
p985
I0
sS'primary_provider'
p986
I01
sS'prefs'
p987
I01
sS'name'
p988
S'Last.fm'
p989
sass.