(dp0
S'_AgentService:AgentInfo'
p1
(dp2
S'com.plexapp.agents.fanarttv'
p3
(lp4
(dp5
S'media_types'
p6
(lp7
S'Movie'
p8
asS'primary_provider'
p9
I00
sS'fallback_agent'
p10
NsS'contributes_to'
p11
(lp12
S'com.plexapp.agents.imdb'
p13
aS'com.plexapp.agents.themoviedb'
p14
asS'has_attribution'
p15
I01
sS'languages'
p16
(lp17
S'xn'
p18
asS'persist_stored_files'
p19
I01
sS'version'
p20
I0
sS'accepts_from'
p21
NsS'prefs'
p22
I01
sS'name'
p23
S'Fanart.tv'
p24
sa(dp25
S'media_types'
p26
(lp27
S'TV_Show'
p28
asS'primary_provider'
p29
I00
sS'fallback_agent'
p30
NsS'contributes_to'
p31
(lp32
S'com.plexapp.agents.thetvdb'
p33
aS'com.plexapp.agents.themoviedb'
p34
asg15
I01
sS'languages'
p35
(lp36
S'xn'
p37
asS'persist_stored_files'
p38
I01
sS'version'
p39
I0
sS'accepts_from'
p40
NsS'prefs'
p41
I01
sS'name'
p42
S'Fanart.tv'
p43
sa(dp44
S'media_types'
p45
(lp46
S'Artist'
p47
asS'primary_provider'
p48
I00
sS'fallback_agent'
p49
NsS'contributes_to'
p50
(lp51
S'com.plexapp.agents.lastfm'
p52
asg15
I01
sS'languages'
p53
(lp54
S'xn'
p55
asS'persist_stored_files'
p56
I01
sS'version'
p57
I0
sS'accepts_from'
p58
NsS'prefs'
p59
I01
sS'name'
p60
S'Fanart.tv'
p61
sa(dp62
S'media_types'
p63
(lp64
S'Album'
p65
asS'primary_provider'
p66
I00
sS'fallback_agent'
p67
NsS'contributes_to'
p68
(lp69
S'com.plexapp.agents.lastfm'
p70
asg15
I01
sS'languages'
p71
(lp72
S'xn'
p73
asS'persist_stored_files'
p74
I01
sS'version'
p75
I0
sS'accepts_from'
p76
NsS'prefs'
p77
I01
sS'name'
p78
S'Fanart.tv'
p79
sasS'com.plexapp.agents.none'
p80
(lp81
(dp82
S'media_types'
p83
(lp84
S'Movie'
p85
asS'primary_provider'
p86
I01
sS'fallback_agent'
p87
NsS'contributes_to'
p88
Nsg15
I00
sS'languages'
p89
(lp90
S'xn'
p91
asS'persist_stored_files'
p92
I01
sS'version'
p93
I0
sS'accepts_from'
p94
NsS'prefs'
p95
I00
sS'name'
p96
S'Personal Media'
p97
sa(dp98
S'media_types'
p99
(lp100
S'TV_Show'
p101
asS'primary_provider'
p102
I01
sS'fallback_agent'
p103
NsS'contributes_to'
p104
Nsg15
I00
sS'languages'
p105
(lp106
S'xn'
p107
asS'persist_stored_files'
p108
I01
sS'version'
p109
I0
sS'accepts_from'
p110
NsS'prefs'
p111
I00
sS'name'
p112
S'Personal Media Shows'
p113
sa(dp114
S'media_types'
p115
(lp116
S'Artist'
p117
asS'primary_provider'
p118
I01
sS'fallback_agent'
p119
NsS'contributes_to'
p120
Nsg15
I00
sS'languages'
p121
(lp122
S'xn'
p123
asS'persist_stored_files'
p124
I01
sS'version'
p125
I0
sS'accepts_from'
p126
NsS'prefs'
p127
I00
sS'name'
p128
S'Personal Media Artists'
p129
sa(dp130
S'media_types'
p131
(lp132
S'Album'
p133
asS'primary_provider'
p134
I01
sS'fallback_agent'
p135
NsS'contributes_to'
p136
Nsg15
I00
sS'languages'
p137
(lp138
S'xn'
p139
asS'persist_stored_files'
p140
I01
sS'version'
p141
I0
sS'accepts_from'
p142
NsS'prefs'
p143
I00
sS'name'
p144
S'Personal Media Albums'
p145
sa(dp146
S'media_types'
p147
(lp148
S'Photo'
p149
asS'primary_provider'
p150
I01
sS'fallback_agent'
p151
NsS'contributes_to'
p152
Nsg15
I00
sS'languages'
p153
(lp154
S'en'
p155
aS'ar'
p156
aS'bg'
p157
aS'ca'
p158
aS'cs'
p159
aS'cy'
p160
aS'da'
p161
aS'de'
p162
aS'el'
p163
aS'es'
p164
aS'et'
p165
aS'fa'
p166
aS'fi'
p167
aS'fr'
p168
aS'he'
p169
aS'hi'
p170
aS'hr'
p171
aS'ht'
p172
aS'hu'
p173
aS'id'
p174
aS'it'
p175
aS'ja'
p176
aS'ko'
p177
aS'lt'
p178
aS'lv'
p179
aS'ms'
p180
aS'mt'
p181
aS'nl'
p182
aS'no'
p183
aS'pl'
p184
aS'pt'
p185
aS'ro'
p186
aS'ru'
p187
aS'sk'
p188
aS'sv'
p189
aS'sl'
p190
aS'sr'
p191
aS'th'
p192
aS'tr'
p193
aS'uk'
p194
aS'ur'
p195
aS'vi'
p196
aS'zh'
p197
aS'xn'
p198
asS'persist_stored_files'
p199
I01
sS'version'
p200
I0
sS'accepts_from'
p201
NsS'prefs'
p202
I00
sS'name'
p203
S'Photos'
p204
sasS'tv.plex.agents.music'
p205
(lp206
(dp207
S'media_types'
p208
(lp209
S'Artist'
p210
asS'primary_provider'
p211
I01
sS'fallback_agent'
p212
NsS'contributes_to'
p213
(lp214
S'com.plexapp.agents.localmedia'
p215
asg15
I01
sS'languages'
p216
(lp217
S'en'
p218
aS'ar'
p219
aS'bg'
p220
aS'zh'
p221
aS'hr'
p222
aS'cs'
p223
aS'da'
p224
aS'nl'
p225
aS'fi'
p226
aS'fr'
p227
aS'de'
p228
aS'el'
p229
aS'hu'
p230
aS'id'
p231
aS'it'
p232
aS'ja'
p233
aS'ko'
p234
aS'nn'
p235
aS'pl'
p236
aS'pt'
p237
aS'ro'
p238
aS'ru'
p239
aS'sr'
p240
aS'sk'
p241
aS'es'
p242
aS'sv'
p243
aS'th'
p244
aS'tr'
p245
aS'vi'
p246
aS'xx'
p247
asS'persist_stored_files'
p248
I01
sS'version'
p249
I0
sS'accepts_from'
p250
NsS'prefs'
p251
I01
sS'name'
p252
S'Plex Music'
p253
sa(dp254
S'media_types'
p255
(lp256
S'Album'
p257
asS'primary_provider'
p258
I01
sS'fallback_agent'
p259
NsS'contributes_to'
p260
(lp261
S'com.plexapp.agents.localmedia'
p262
asg15
I01
sS'languages'
p263
g217
sS'persist_stored_files'
p264
I01
sS'version'
p265
I0
sS'accepts_from'
p266
NsS'prefs'
p267
I01
sS'name'
p268
S'Plex Music'
p269
sasS'com.plexapp.agents.opensubtitles'
p270
(lp271
(dp272
S'media_types'
p273
(lp274
S'Movie'
p275
asS'primary_provider'
p276
I00
sS'fallback_agent'
p277
NsS'contributes_to'
p278
(lp279
S'com.plexapp.agents.imdb'
p280
asg15
I00
sS'languages'
p281
(lp282
S'xn'
p283
asS'persist_stored_files'
p284
I01
sS'version'
p285
I0
sS'accepts_from'
p286
NsS'prefs'
p287
I01
sS'name'
p288
S'OpenSubtitles.org'
p289
sa(dp290
S'media_types'
p291
(lp292
S'TV_Show'
p293
asS'primary_provider'
p294
I00
sS'fallback_agent'
p295
NsS'contributes_to'
p296
(lp297
S'com.plexapp.agents.thetvdb'
p298
asg15
I00
sS'languages'
p299
(lp300
S'xn'
p301
asS'persist_stored_files'
p302
I01
sS'version'
p303
I0
sS'accepts_from'
p304
NsS'prefs'
p305
I01
sS'name'
p306
S'OpenSubtitles.org'
p307
sasS'com.plexapp.agents.imdb'
p308
(lp309
(dp310
S'media_types'
p311
(lp312
S'Movie'
p313
asS'primary_provider'
p314
I01
sS'fallback_agent'
p315
NsS'contributes_to'
p316
(lp317
S'com.plexapp.agents.themoviedb'
p318
asS'has_attribution'
p319
I01
sS'languages'
p320
(lp321
S'en'
p322
aS'sv'
p323
aS'fr'
p324
aS'es'
p325
aS'nl'
p326
aS'de'
p327
aS'it'
p328
aS'da'
p329
aS'ar'
p330
aS'ca'
p331
aS'zh'
p332
aS'cs'
p333
aS'et'
p334
aS'fi'
p335
aS'el'
p336
aS'he'
p337
aS'hi'
p338
aS'hu'
p339
aS'id'
p340
aS'ja'
p341
aS'ko'
p342
aS'lv'
p343
aS'no'
p344
aS'fa'
p345
aS'pl'
p346
aS'pt'
p347
aS'ro'
p348
aS'ru'
p349
aS'sk'
p350
aS'th'
p351
aS'tr'
p352
aS'uk'
p353
aS'vi'
p354
asS'persist_stored_files'
p355
I01
sS'version'
p356
I0
sS'accepts_from'
p357
(lp358
S'com.plexapp.agents.localmedia'
p359
asS'prefs'
p360
I01
sS'name'
p361
S'Plex Movie'
p362
sasS'com.plexapp.agents.lyricfind'
p363
(lp364
(dp365
S'media_types'
p366
(lp367
S'Album'
p368
asS'primary_provider'
p369
I00
sS'fallback_agent'
p370
NsS'contributes_to'
p371
(lp372
S'com.plexapp.agents.lastfm'
p373
aS'tv.plex.agents.music'
p374
aS'org.musicbrainz.agents.music'
p375
asg15
I01
sS'languages'
p376
(lp377
S'xn'
p378
asS'persist_stored_files'
p379
I01
sS'version'
p380
I0
sS'accepts_from'
p381
NsS'prefs'
p382
I00
sS'name'
p383
S'LyricFind'
p384
sasS'com.plexapp.agents.thetvdb'
p385
(lp386
(dp387
S'media_types'
p388
(lp389
S'TV_Show'
p390
asS'primary_provider'
p391
I01
sS'fallback_agent'
p392
NsS'contributes_to'
p393
Nsg15
I01
sS'languages'
p394
(lp395
S'en'
p396
aS'fr'
p397
aS'zh'
p398
aS'sv'
p399
aS'no'
p400
aS'da'
p401
aS'fi'
p402
aS'nl'
p403
aS'de'
p404
aS'it'
p405
aS'es'
p406
aS'pl'
p407
aS'hu'
p408
aS'el'
p409
aS'tr'
p410
aS'ru'
p411
aS'he'
p412
aS'ja'
p413
aS'pt'
p414
aS'cs'
p415
aS'ko'
p416
aS'sl'
p417
aS'hr'
p418
asS'persist_stored_files'
p419
I01
sS'version'
p420
I0
sS'accepts_from'
p421
NsS'prefs'
p422
I01
sS'name'
p423
S'TheTVDB'
p424
sasS'tv.plex.agents.movie'
p425
(lp426
(dp427
S'media_types'
p428
(lp429
S'Movie'
p430
asS'primary_provider'
p431
I01
sS'fallback_agent'
p432
NsS'contributes_to'
p433
Nsg15
I01
sS'languages'
p434
(lp435
sS'persist_stored_files'
p436
I01
sS'version'
p437
I0
sS'accepts_from'
p438
NsS'prefs'
p439
I01
sS'name'
p440
S'Plex Movie'
p441
sasS'tv.plex.agents.series'
p442
(lp443
(dp444
S'media_types'
p445
(lp446
S'TV_Show'
p447
asS'primary_provider'
p448
I01
sS'fallback_agent'
p449
NsS'contributes_to'
p450
Nsg15
I01
sS'languages'
p451
(lp452
sS'persist_stored_files'
p453
I01
sS'version'
p454
I0
sS'accepts_from'
p455
NsS'prefs'
p456
I01
sS'name'
p457
S'Plex TV Series'
p458
sasS'com.plexapp.agents.plexthememusic'
p459
(lp460
(dp461
S'media_types'
p462
(lp463
S'TV_Show'
p464
asS'primary_provider'
p465
I00
sS'fallback_agent'
p466
NsS'contributes_to'
p467
(lp468
S'com.plexapp.agents.thetvdb'
p469
aS'com.plexapp.agents.thetvdbdvdorder'
p470
aS'com.plexapp.agents.themoviedb'
p471
asg15
I00
sS'languages'
p472
(lp473
S'xn'
p474
asS'persist_stored_files'
p475
I01
sS'version'
p476
I0
sS'accepts_from'
p477
NsS'prefs'
p478
I00
sS'name'
p479
S'Plex Theme Music'
p480
sasS'org.musicbrainz.agents.music'
p481
(lp482
(dp483
S'media_types'
p484
(lp485
S'Artist'
p486
asS'primary_provider'
p487
I01
sS'fallback_agent'
p488
NsS'contributes_to'
p489
Nsg15
I01
sS'languages'
p490
(lp491
S'en'
p492
aS'ar'
p493
aS'bg'
p494
aS'zh'
p495
aS'hr'
p496
aS'cs'
p497
aS'da'
p498
aS'nl'
p499
aS'fi'
p500
aS'fr'
p501
aS'de'
p502
aS'el'
p503
aS'hu'
p504
aS'id'
p505
aS'it'
p506
aS'ja'
p507
aS'ko'
p508
aS'nn'
p509
aS'pl'
p510
aS'pt'
p511
aS'ro'
p512
aS'ru'
p513
aS'sr'
p514
aS'sk'
p515
aS'es'
p516
aS'sv'
p517
aS'th'
p518
aS'tr'
p519
aS'vi'
p520
aS'xx'
p521
asS'persist_stored_files'
p522
I01
sS'version'
p523
I0
sS'accepts_from'
p524
NsS'prefs'
p525
I01
sS'name'
p526
S'Musicbrainz'
p527
sa(dp528
S'media_types'
p529
(lp530
S'Album'
p531
asS'primary_provider'
p532
I01
sS'fallback_agent'
p533
NsS'contributes_to'
p534
Nsg15
I01
sS'languages'
p535
g491
sS'persist_stored_files'
p536
I01
sS'version'
p537
I0
sS'accepts_from'
p538
NsS'prefs'
p539
I01
sS'name'
p540
S'Musicbrainz'
p541
sasS'com.plexapp.agents.themoviedb'
p542
(lp543
(dp544
S'media_types'
p545
(lp546
S'Movie'
p547
asS'primary_provider'
p548
I01
sS'fallback_agent'
p549
NsS'contributes_to'
p550
Nsg15
I01
sS'languages'
p551
(lp552
S'en'
p553
aS'cs'
p554
aS'da'
p555
aS'de'
p556
aS'el'
p557
aS'es'
p558
aS'fi'
p559
aS'fr'
p560
aS'he'
p561
aS'hr'
p562
aS'hu'
p563
aS'it'
p564
aS'lv'
p565
aS'lt'
p566
aS'nl'
p567
aS'no'
p568
aS'pl'
p569
aS'pt'
p570
aS'ru'
p571
aS'sk'
p572
aS'sv'
p573
aS'th'
p574
aS'tr'
p575
aS'vi'
p576
aS'zh'
p577
aS'ko'
p578
asS'persist_stored_files'
p579
I01
sS'version'
p580
I0
sS'accepts_from'
p581
(lp582
S'com.plexapp.agents.localmedia'
p583
asS'prefs'
p584
I01
sS'name'
p585
S'The Movie Database'
p586
sa(dp587
S'media_types'
p588
(lp589
S'TV_Show'
p590
asS'primary_provider'
p591
I01
sS'fallback_agent'
p592
NsS'contributes_to'
p593
(lp594
S'com.plexapp.agents.thetvdb'
p595
asg15
I01
sS'languages'
p596
g552
sS'persist_stored_files'
p597
I01
sS'version'
p598
I0
sS'accepts_from'
p599
(lp600
S'com.plexapp.agents.localmedia'
p601
aS'com.plexapp.agents.thetvdb'
p602
asS'prefs'
p603
I01
sS'name'
p604
S'The Movie Database'
p605
sasS'com.plexapp.agents.localmedia'
p606
(lp607
(dp608
S'media_types'
p609
(lp610
S'Movie'
p611
asS'primary_provider'
p612
I00
sS'fallback_agent'
p613
NsS'contributes_to'
p614
(lp615
S'com.plexapp.agents.imdb'
p616
aS'com.plexapp.agents.none'
p617
asg15
I00
sS'languages'
p618
(lp619
S'xn'
p620
asS'persist_stored_files'
p621
I00
sS'version'
p622
I0
sS'accepts_from'
p623
NsS'prefs'
p624
I01
sS'name'
p625
S'Local Media Assets (Movies)'
p626
sa(dp627
S'media_types'
p628
(lp629
S'TV_Show'
p630
asS'primary_provider'
p631
I00
sS'fallback_agent'
p632
NsS'contributes_to'
p633
(lp634
S'com.plexapp.agents.thetvdb'
p635
aS'com.plexapp.agents.none'
p636
asg15
I00
sS'languages'
p637
(lp638
S'xn'
p639
asS'persist_stored_files'
p640
I00
sS'version'
p641
I0
sS'accepts_from'
p642
NsS'prefs'
p643
I01
sS'name'
p644
S'Local Media Assets (TV)'
p645
sa(dp646
S'media_types'
p647
(lp648
S'Artist'
p649
asS'primary_provider'
p650
I00
sS'fallback_agent'
p651
NsS'contributes_to'
p652
(lp653
S'com.plexapp.agents.discogs'
p654
aS'com.plexapp.agents.lastfm'
p655
aS'com.plexapp.agents.plexmusic'
p656
aS'com.plexapp.agents.none'
p657
aS'tv.plex.agents.music'
p658
aS'org.musicbrainz.agents.music'
p659
asg15
I00
sS'languages'
p660
(lp661
S'xn'
p662
asS'persist_stored_files'
p663
I00
sS'version'
p664
I0
sS'accepts_from'
p665
NsS'prefs'
p666
I01
sS'name'
p667
S'Local Media Assets (Artists)'
p668
sa(dp669
S'media_types'
p670
(lp671
S'Artist'
p672
asS'primary_provider'
p673
I00
sS'fallback_agent'
p674
NsS'contributes_to'
p675
(lp676
S'com.plexapp.agents.plexmusic'
p677
asg15
I00
sS'languages'
p678
g661
sS'persist_stored_files'
p679
I00
sS'version'
p680
I2
sS'accepts_from'
p681
NsS'prefs'
p682
I01
sS'name'
p683
S'Local Media Assets (Artists)'
p684
sa(dp685
S'media_types'
p686
(lp687
S'Album'
p688
asS'primary_provider'
p689
I00
sS'fallback_agent'
p690
NsS'contributes_to'
p691
(lp692
S'com.plexapp.agents.discogs'
p693
aS'com.plexapp.agents.lastfm'
p694
aS'com.plexapp.agents.plexmusic'
p695
aS'com.plexapp.agents.none'
p696
aS'tv.plex.agents.music'
p697
aS'org.musicbrainz.agents.music'
p698
asg15
I00
sS'languages'
p699
(lp700
S'xn'
p701
asS'persist_stored_files'
p702
I00
sS'version'
p703
I0
sS'accepts_from'
p704
NsS'prefs'
p705
I01
sS'name'
p706
S'Local Media Assets (Albums)'
p707
sasS'com.plexapp.agents.movieposterdb'
p708
(lp709
(dp710
S'media_types'
p711
(lp712
S'Movie'
p713
asS'primary_provider'
p714
I00
sS'fallback_agent'
p715
NsS'contributes_to'
p716
(lp717
S'com.plexapp.agents.imdb'
p718
asg15
I01
sS'languages'
p719
(lp720
S'xn'
p721
asS'persist_stored_files'
p722
I01
sS'version'
p723
I0
sS'accepts_from'
p724
NsS'prefs'
p725
I00
sS'name'
p726
S'CineMaterial'
p727
sasS'com.plexapp.agents.htbackdrops'
p728
(lp729
(dp730
S'media_types'
p731
(lp732
S'Artist'
p733
asS'primary_provider'
p734
I00
sS'fallback_agent'
p735
NsS'contributes_to'
p736
(lp737
S'com.plexapp.agents.lastfm'
p738
asg15
I01
sS'languages'
p739
(lp740
S'ab'
p741
aS'aa'
p742
aS'af'
p743
aS'ak'
p744
aS'sq'
p745
aS'am'
p746
aS'ar'
p747
aS'an'
p748
aS'hy'
p749
aS'as'
p750
aS'av'
p751
aS'ae'
p752
aS'ay'
p753
aS'az'
p754
aS'bm'
p755
aS'ba'
p756
aS'eu'
p757
aS'be'
p758
aS'bn'
p759
aS'bh'
p760
aS'bi'
p761
aS'bs'
p762
aS'pb'
p763
aS'br'
p764
aS'bg'
p765
aS'my'
p766
aS'ca'
p767
aS'ch'
p768
aS'ce'
p769
aS'ny'
p770
aS'zh'
p771
aS'cu'
p772
aS'cv'
p773
aS'kw'
p774
aS'co'
p775
aS'cr'
p776
aS'hr'
p777
aS'cs'
p778
aS'da'
p779
aS'dv'
p780
aS'nl'
p781
aS'dz'
p782
aS'en'
p783
aS'eo'
p784
aS'et'
p785
aS'ee'
p786
aS'fo'
p787
aS'fj'
p788
aS'fi'
p789
aS'fr'
p790
aS'fy'
p791
aS'ff'
p792
aS'gd'
p793
aS'gl'
p794
aS'lg'
p795
aS'ka'
p796
aS'de'
p797
aS'el'
p798
aS'gn'
p799
aS'gu'
p800
aS'ht'
p801
aS'ha'
p802
aS'he'
p803
aS'hz'
p804
aS'hi'
p805
aS'ho'
p806
aS'hu'
p807
aS'is'
p808
aS'io'
p809
aS'ig'
p810
aS'id'
p811
aS'ia'
p812
aS'ie'
p813
aS'iu'
p814
aS'ik'
p815
aS'ga'
p816
aS'it'
p817
aS'ja'
p818
aS'jv'
p819
aS'kl'
p820
aS'kn'
p821
aS'kr'
p822
aS'ks'
p823
aS'kk'
p824
aS'km'
p825
aS'ki'
p826
aS'rw'
p827
aS'ky'
p828
aS'kv'
p829
aS'kg'
p830
aS'ko'
p831
aS'kj'
p832
aS'ku'
p833
aS'lo'
p834
aS'la'
p835
aS'lv'
p836
aS'li'
p837
aS'ln'
p838
aS'lt'
p839
aS'lu'
p840
aS'lb'
p841
aS'mk'
p842
aS'mg'
p843
aS'ms'
p844
aS'ml'
p845
aS'mt'
p846
aS'gv'
p847
aS'mi'
p848
aS'mr'
p849
aS'mh'
p850
aS'mo'
p851
aS'mn'
p852
aS'na'
p853
aS'nv'
p854
aS'ng'
p855
aS'ne'
p856
aS'xn'
p857
aS'nd'
p858
aS'no'
p859
aS'nb'
p860
aS'nn'
p861
aS'oc'
p862
aS'oj'
p863
aS'or'
p864
aS'om'
p865
aS'os'
p866
aS'pi'
p867
aS'pa'
p868
aS'fa'
p869
aS'pl'
p870
aS'pt'
p871
aS'ps'
p872
aS'qu'
p873
aS'rm'
p874
aS'ro'
p875
aS'rn'
p876
aS'ru'
p877
aS'se'
p878
aS'sm'
p879
aS'sg'
p880
aS'sa'
p881
aS'sc'
p882
aS'sr'
p883
aS'sn'
p884
aS'ii'
p885
aS'sd'
p886
aS'si'
p887
aS'sk'
p888
aS'sl'
p889
aS'so'
p890
aS'st'
p891
aS'nr'
p892
aS'es'
p893
aS'su'
p894
aS'sw'
p895
aS'ss'
p896
aS'sv'
p897
aS'tl'
p898
aS'ty'
p899
aS'tg'
p900
aS'ta'
p901
aS'tt'
p902
aS'te'
p903
aS'th'
p904
aS'bo'
p905
aS'ti'
p906
aS'to'
p907
aS'ts'
p908
aS'tn'
p909
aS'tr'
p910
aS'tk'
p911
aS'tw'
p912
aS'ug'
p913
aS'uk'
p914
aS'ur'
p915
aS'uz'
p916
aS've'
p917
aS'vi'
p918
aS'vo'
p919
aS'wa'
p920
aS'cy'
p921
aS'wo'
p922
aS'xh'
p923
aS'yi'
p924
aS'yo'
p925
aS'za'
p926
aS'zu'
p927
asS'persist_stored_files'
p928
I01
sS'version'
p929
I0
sS'accepts_from'
p930
NsS'prefs'
p931
I00
sS'name'
p932
S'Home Theater Backdrops'
p933
sasS'com.plexapp.agents.lastfm'
p934
(lp935
(dp936
S'media_types'
p937
(lp938
S'Artist'
p939
asS'primary_provider'
p940
I01
sS'fallback_agent'
p941
NsS'contributes_to'
p942
Nsg15
I01
sS'languages'
p943
(lp944
S'en'
p945
aS'sv'
p946
aS'fr'
p947
aS'es'
p948
aS'de'
p949
aS'pl'
p950
aS'it'
p951
aS'pt'
p952
aS'ja'
p953
aS'tr'
p954
aS'ru'
p955
aS'zh'
p956
asS'persist_stored_files'
p957
I01
sS'version'
p958
I0
sS'accepts_from'
p959
NsS'prefs'
p960
I01
sS'name'
p961
S'Last.fm'
p962
sa(dp963
S'media_types'
p964
(lp965
S'Album'
p966
asS'primary_provider'
p967
I01
sS'fallback_agent'
p968
NsS'contributes_to'
p969
Nsg15
I01
sS'languages'
p970
(lp971
S'en'
p972
aS'sv'
p973
aS'fr'
p974
aS'es'
p975
aS'de'
p976
aS'pl'
p977
aS'it'
p978
aS'pt'
p979
aS'ja'
p980
aS'tr'
p981
aS'ru'
p982
aS'zh'
p983
asS'persist_stored_files'
p984
I01
sS'version'
p985
I0
sS'accepts_from'
p986
NsS'prefs'
p987
I01
sS'name'
p988
S'Last.fm'
p989
sass.